target datalayout = "e-m:e-p270:32:32-p271:32:32-p272:64:64-i64:64-i128:128-f80:128-n8:16:32:64-S128"
target triple = "x86_64-pc-linux-gnu"

%class.VM_Operation = type { ptr, ptr }
%class.VM_PrintClassHierarchy = type { %class.VM_Operation, ptr, i8, i8, ptr }

; Function Attrs: mustprogress nounwind uwtable
define hidden void @_ZN22VM_PrintClassHierarchy4doitEv(ptr noundef nonnull align 8 dereferenceable(40) %0) unnamed_addr #1 align 2 {
  %2 = alloca ptr, align 8
  store ptr %0, ptr %2, align 8
  %3 = load ptr, ptr %2, align 8
  %4 = getelementptr inbounds %class.VM_PrintClassHierarchy, ptr %3, i32 0, i32 1
  %5 = load ptr, ptr %4, align 8
  %6 = getelementptr inbounds %class.VM_PrintClassHierarchy, ptr %3, i32 0, i32 2
  %7 = load i8, ptr %6, align 8
  %8 = trunc i8 %7 to i1
  %9 = getelementptr inbounds %class.VM_PrintClassHierarchy, ptr %3, i32 0, i32 3
  %10 = load i8, ptr %9, align 1
  %11 = trunc i8 %10 to i1
  %12 = getelementptr inbounds %class.VM_PrintClassHierarchy, ptr %3, i32 0, i32 4
  %13 = load ptr, ptr %12, align 8
  call void @_ZN14KlassHierarchy21print_class_hierarchyEP12outputStreambbPc(ptr noundef %5, i1 noundef zeroext %8, i1 noundef zeroext %11, ptr noundef %13)
  ret void
}