; Function Attrs: mustprogress nounwind uwtable
define hidden void @_ZN22VM_PrintClassHierarchy4doitEv(ptr nocapture noundef nonnull readonly align 8 dereferenceable(40) %0) unnamed_addr #1 align 2 {
  %2 = getelementptr inbounds i8, ptr %0, i64 16
  %3 = load ptr, ptr %2, align 8
  %4 = getelementptr inbounds i8, ptr %0, i64 24
  %5 = load i8, ptr %4, align 8
  %6 = trunc i8 %5 to i1
  %7 = getelementptr inbounds i8, ptr %0, i64 25
  %8 = load i8, ptr %7, align 1
  %9 = trunc i8 %8 to i1
  %10 = getelementptr inbounds i8, ptr %0, i64 32
  %11 = load ptr, ptr %10, align 8
  tail call void @_ZN14KlassHierarchy21print_class_hierarchyEP12outputStreambbPc(ptr noundef %3, i1 noundef zeroext %6, i1 noundef zeroext %9, ptr noundef %11) #10
  ret void
}